target datalayout = "e-m:e-p270:32:32-p271:32:32-p272:64:64-i64:64-i128:128-f80:128-n8:16:32:64-S128"
target triple = "x86_64-pc-linux-gnu"

; Function Attrs: mustprogress nounwind uwtable
define noundef ptr @_Z9RawToWidePKhPwm(ptr noundef %0, ptr noundef %1, i64 noundef %2) #1 {
  %4 = alloca ptr, align 8
  %5 = alloca ptr, align 8
  %6 = alloca i64, align 8
  %7 = alloca i64, align 8
  store ptr %0, ptr %4, align 8
  store ptr %1, ptr %5, align 8
  store i64 %2, ptr %6, align 8
  store i64 0, ptr %7, align 8
  br label %8

8:                                                ; preds = %34, %3
  %9 = load i64, ptr %7, align 8
  %10 = load i64, ptr %6, align 8
  %11 = icmp ult i64 %9, %10
  br i1 %11, label %12, label %37

12:                                               ; preds = %8
  %13 = load ptr, ptr %4, align 8
  %14 = load i64, ptr %7, align 8
  %15 = mul i64 %14, 2
  %16 = getelementptr inbounds i8, ptr %13, i64 %15
  %17 = load i8, ptr %16, align 1
  %18 = zext i8 %17 to i32
  %19 = load ptr, ptr %4, align 8
  %20 = load i64, ptr %7, align 8
  %21 = mul i64 %20, 2
  %22 = add i64 %21, 1
  %23 = getelementptr inbounds i8, ptr %19, i64 %22
  %24 = load i8, ptr %23, align 1
  %25 = zext i8 %24 to i32
  %26 = shl i32 %25, 8
  %27 = add nsw i32 %18, %26
  %28 = load ptr, ptr %5, align 8
  %29 = load i64, ptr %7, align 8
  %30 = getelementptr inbounds i32, ptr %28, i64 %29
  store i32 %27, ptr %30, align 4
  %31 = icmp eq i32 %27, 0
  br i1 %31, label %32, label %33

32:                                               ; preds = %12
  br label %37

33:                                               ; preds = %12
  br label %34

34:                                               ; preds = %33
  %35 = load i64, ptr %7, align 8
  %36 = add i64 %35, 1
  store i64 %36, ptr %7, align 8
  br label %8, !llvm.loop !8

37:                                               ; preds = %32, %8
  %38 = load ptr, ptr %5, align 8
  ret ptr %38
}