; Function Attrs: mustprogress nofree norecurse nosync nounwind memory(argmem: readwrite) uwtable
define noundef ptr @_Z9RawToWidePKhPwm(ptr noundef readonly captures(none) %0, ptr noundef returned writeonly %1, i64 noundef %2) local_unnamed_addr #4 {
  %.not = icmp eq i64 %2, 0
  br i1 %.not, label %._crit_edge, label %.lr.ph

.lr.ph:                                           ; preds = %3, %.lr.ph
  %.09 = phi i64 [ %16, %.lr.ph ], [ 0, %3 ]
  %4 = shl i64 %.09, 1
  %5 = getelementptr inbounds i8, ptr %0, i64 %4
  %6 = load i8, ptr %5, align 1
  %7 = zext i8 %6 to i32
  %8 = or disjoint i64 %4, 1
  %9 = getelementptr inbounds i8, ptr %0, i64 %8
  %10 = load i8, ptr %9, align 1
  %11 = zext i8 %10 to i32
  %12 = shl nuw nsw i32 %11, 8
  %13 = or disjoint i32 %12, %7
  %14 = getelementptr inbounds i32, ptr %1, i64 %.09
  store i32 %13, ptr %14, align 4
  %15 = icmp eq i32 %13, 0
  %16 = add nuw i64 %.09, 1
  %exitcond.not = icmp eq i64 %16, %2
  %or.cond = select i1 %15, i1 true, i1 %exitcond.not
  br i1 %or.cond, label %._crit_edge, label %.lr.ph, !llvm.loop !8

._crit_edge:                                      ; preds = %.lr.ph, %3
  ret ptr %1
}